; Function Attrs: nounwind uwtable
define noalias nonnull ptr @l_Lean_IR_IsLive_visitArgs(ptr noundef %0, ptr noundef %1, ptr noundef %2) local_unnamed_addr #0 {
  %4 = tail call zeroext i8 @l_Lean_IR_HasIndex_visitArgs(ptr noundef %0, ptr noundef %1) #4
  tail call void @lean_inc_heartbeat() #4
  %5 = tail call noalias ptr @mi_malloc_small(i64 noundef 24) #4
  %6 = icmp eq ptr %5, null
  br i1 %6, label %7, label %lean_alloc_ctor.exit

7:                                                ; preds = %3
  tail call void @lean_internal_panic_out_of_memory() #5
  unreachable

lean_alloc_ctor.exit:                             ; preds = %3
  %8 = zext i8 %4 to i64
  %9 = shl nuw nsw i64 %8, 1
  %10 = or disjoint i64 %9, 1
  %11 = inttoptr i64 %10 to ptr
  %12 = getelementptr inbounds nuw i8, ptr %5, i64 4
  store i32 1, ptr %5, align 4, !tbaa !5
  store i32 131096, ptr %12, align 4
  %13 = getelementptr inbounds nuw i8, ptr %5, i64 8
  store ptr %11, ptr %13, align 8, !tbaa !10
  %14 = getelementptr inbounds nuw i8, ptr %5, i64 16
  store ptr %2, ptr %14, align 8, !tbaa !10
  ret ptr %5
}